target datalayout = "e-m:e-p270:32:32-p271:32:32-p272:64:64-i64:64-i128:128-f80:128-n8:16:32:64-S128"
target triple = "x86_64-pc-linux-gnu"

%struct.pmix_object_t = type { %union.pthread_mutex_t, ptr, i32, %struct.pmix_tma }
%struct.pmix_tma = type { ptr, ptr, ptr, ptr, ptr, ptr, ptr, ptr }
%union.pthread_mutex_t = type { %struct.__pthread_mutex_s }
%struct.__pthread_mutex_s = type { i32, i32, i32, i32, i32, i16, i16, %struct.__pthread_internal_list }
%struct.__pthread_internal_list = type { ptr, ptr }
%struct.pmix_proc = type { [256 x i8], i32 }
%struct.timeval = type { i64, i64 }
%struct.pmix_list_item_t = type { %struct.pmix_object_t, ptr, ptr, i32 }
%struct.event = type { %struct.event_callback, %union.anon.2, i32, ptr, %union.anon.4, i16, i16, %struct.timeval }
%struct.event_callback = type { %struct.anon.0, i16, i8, i8, %union.anon.1, ptr }
%struct.anon.0 = type { ptr, ptr }
%union.anon.1 = type { ptr }
%union.anon.2 = type { %struct.anon.3 }
%struct.anon.3 = type { ptr, ptr }
%union.anon.4 = type { %struct.anon.5 }
%struct.anon.5 = type { %struct.anon.6, %struct.timeval }
%struct.anon.6 = type { ptr, ptr }
%struct.pmix_event_chain_t = type { %struct.pmix_list_item_t, i32, %struct.event, i8, i8, i8, i8, %struct.pmix_proc, i8, ptr, i64, ptr, i64, ptr, i64, i64, i32, ptr, i64, ptr, i64, ptr, ptr, ptr, ptr, ptr }

; Function Attrs: nounwind uwtable
define internal void @chcon(ptr noundef %0) #0 {
  %2 = alloca ptr, align 8
  store ptr %0, ptr %2, align 8, !tbaa !86
  %3 = load ptr, ptr %2, align 8, !tbaa !86
  %4 = getelementptr inbounds nuw %struct.pmix_event_chain_t, ptr %3, i32 0, i32 3
  store i8 0, ptr %4, align 8, !tbaa !258
  %5 = load ptr, ptr %2, align 8, !tbaa !86
  %6 = getelementptr inbounds nuw %struct.pmix_event_chain_t, ptr %5, i32 0, i32 7
  %7 = getelementptr inbounds nuw %struct.pmix_proc, ptr %6, i32 0, i32 0
  %8 = getelementptr inbounds [256 x i8], ptr %7, i64 0, i64 0
  call void @llvm.memset.p0.i64(ptr align 4 %8, i8 0, i64 256, i1 false)
  %9 = load ptr, ptr %2, align 8, !tbaa !86
  %10 = getelementptr inbounds nuw %struct.pmix_event_chain_t, ptr %9, i32 0, i32 7
  %11 = getelementptr inbounds nuw %struct.pmix_proc, ptr %10, i32 0, i32 1
  store i32 -1, ptr %11, align 4, !tbaa !111
  %12 = load ptr, ptr %2, align 8, !tbaa !86
  %13 = getelementptr inbounds nuw %struct.pmix_event_chain_t, ptr %12, i32 0, i32 4
  store i8 0, ptr %13, align 1, !tbaa !113
  %14 = load ptr, ptr %2, align 8, !tbaa !86
  %15 = getelementptr inbounds nuw %struct.pmix_event_chain_t, ptr %14, i32 0, i32 5
  store i8 0, ptr %15, align 2, !tbaa !197
  %16 = load ptr, ptr %2, align 8, !tbaa !86
  %17 = getelementptr inbounds nuw %struct.pmix_event_chain_t, ptr %16, i32 0, i32 6
  store i8 0, ptr %17, align 1, !tbaa !127
  %18 = load ptr, ptr %2, align 8, !tbaa !86
  %19 = getelementptr inbounds nuw %struct.pmix_event_chain_t, ptr %18, i32 0, i32 9
  store ptr null, ptr %19, align 8, !tbaa !116
  %20 = load ptr, ptr %2, align 8, !tbaa !86
  %21 = getelementptr inbounds nuw %struct.pmix_event_chain_t, ptr %20, i32 0, i32 10
  store i64 0, ptr %21, align 8, !tbaa !117
  %22 = load ptr, ptr %2, align 8, !tbaa !86
  %23 = getelementptr inbounds nuw %struct.pmix_event_chain_t, ptr %22, i32 0, i32 8
  store i8 0, ptr %23, align 8, !tbaa !108
  %24 = load ptr, ptr %2, align 8, !tbaa !86
  %25 = getelementptr inbounds nuw %struct.pmix_event_chain_t, ptr %24, i32 0, i32 11
  store ptr null, ptr %25, align 8, !tbaa !120
  %26 = load ptr, ptr %2, align 8, !tbaa !86
  %27 = getelementptr inbounds nuw %struct.pmix_event_chain_t, ptr %26, i32 0, i32 12
  store i64 0, ptr %27, align 8, !tbaa !121
  %28 = load ptr, ptr %2, align 8, !tbaa !86
  %29 = getelementptr inbounds nuw %struct.pmix_event_chain_t, ptr %28, i32 0, i32 13
  store ptr null, ptr %29, align 8, !tbaa !110
  %30 = load ptr, ptr %2, align 8, !tbaa !86
  %31 = getelementptr inbounds nuw %struct.pmix_event_chain_t, ptr %30, i32 0, i32 14
  store i64 0, ptr %31, align 8, !tbaa !112
  %32 = load ptr, ptr %2, align 8, !tbaa !86
  %33 = getelementptr inbounds nuw %struct.pmix_event_chain_t, ptr %32, i32 0, i32 15
  store i64 0, ptr %33, align 8, !tbaa !109
  %34 = load ptr, ptr %2, align 8, !tbaa !86
  %35 = getelementptr inbounds nuw %struct.pmix_event_chain_t, ptr %34, i32 0, i32 16
  store i32 -1, ptr %35, align 8, !tbaa !213
  %36 = load ptr, ptr %2, align 8, !tbaa !86
  %37 = getelementptr inbounds nuw %struct.pmix_event_chain_t, ptr %36, i32 0, i32 17
  store ptr null, ptr %37, align 8, !tbaa !278
  %38 = load ptr, ptr %2, align 8, !tbaa !86
  %39 = getelementptr inbounds nuw %struct.pmix_event_chain_t, ptr %38, i32 0, i32 18
  store i64 0, ptr %39, align 8, !tbaa !279
  %40 = load ptr, ptr %2, align 8, !tbaa !86
  %41 = getelementptr inbounds nuw %struct.pmix_event_chain_t, ptr %40, i32 0, i32 19
  store ptr null, ptr %41, align 8, !tbaa !214
  %42 = load ptr, ptr %2, align 8, !tbaa !86
  %43 = getelementptr inbounds nuw %struct.pmix_event_chain_t, ptr %42, i32 0, i32 20
  store i64 0, ptr %43, align 8, !tbaa !215
  %44 = load ptr, ptr %2, align 8, !tbaa !86
  %45 = getelementptr inbounds nuw %struct.pmix_event_chain_t, ptr %44, i32 0, i32 21
  store ptr null, ptr %45, align 8, !tbaa !186
  %46 = load ptr, ptr %2, align 8, !tbaa !86
  %47 = getelementptr inbounds nuw %struct.pmix_event_chain_t, ptr %46, i32 0, i32 22
  store ptr null, ptr %47, align 8, !tbaa !216
  %48 = load ptr, ptr %2, align 8, !tbaa !86
  %49 = getelementptr inbounds nuw %struct.pmix_event_chain_t, ptr %48, i32 0, i32 23
  store ptr null, ptr %49, align 8, !tbaa !217
  %50 = load ptr, ptr %2, align 8, !tbaa !86
  %51 = getelementptr inbounds nuw %struct.pmix_event_chain_t, ptr %50, i32 0, i32 24
  store ptr null, ptr %51, align 8, !tbaa !199
  %52 = load ptr, ptr %2, align 8, !tbaa !86
  %53 = getelementptr inbounds nuw %struct.pmix_event_chain_t, ptr %52, i32 0, i32 25
  store ptr null, ptr %53, align 8, !tbaa !200
  ret void
}